target datalayout = "e-m:e-p270:32:32-p271:32:32-p272:64:64-i64:64-i128:128-f80:128-n8:16:32:64-S128"
target triple = "x86_64-pc-linux-gnu"

%struct._FUserData = type { ptr, ptr, ptr, ptr, ptr, ptr, ptr, ptr, ptr }

; Function Attrs: nounwind uwtable
define internal ptr @f2cstr(ptr noundef %0, i32 noundef %1) #0 {
  %3 = alloca ptr, align 8
  %4 = alloca i32, align 4
  %5 = alloca i32, align 4
  %6 = alloca ptr, align 8
  store ptr %0, ptr %3, align 8, !tbaa !34
  store i32 %1, ptr %4, align 4, !tbaa !11
  call void @llvm.lifetime.start.p0(i64 4, ptr %5) #6
  call void @llvm.lifetime.start.p0(i64 8, ptr %6) #6
  %7 = load i32, ptr %4, align 4, !tbaa !11
  store i32 %7, ptr %5, align 4, !tbaa !11
  br label %8

8:                                                ; preds = %22, %2
  %9 = load i32, ptr %5, align 4, !tbaa !11
  %10 = icmp sgt i32 %9, 0
  br i1 %10, label %11, label %25

11:                                               ; preds = %8
  %12 = load ptr, ptr %3, align 8, !tbaa !34
  %13 = load i32, ptr %5, align 4, !tbaa !11
  %14 = sub nsw i32 %13, 1
  %15 = sext i32 %14 to i64
  %16 = getelementptr inbounds i8, ptr %12, i64 %15
  %17 = load i8, ptr %16, align 1, !tbaa !36
  %18 = sext i8 %17 to i32
  %19 = icmp ne i32 %18, 32
  br i1 %19, label %20, label %21

20:                                               ; preds = %11
  br label %25

21:                                               ; preds = %11
  br label %22

22:                                               ; preds = %21
  %23 = load i32, ptr %5, align 4, !tbaa !11
  %24 = add nsw i32 %23, -1
  store i32 %24, ptr %5, align 4, !tbaa !11
  br label %8, !llvm.loop !37

25:                                               ; preds = %20, %8
  %26 = load i32, ptr %5, align 4, !tbaa !11
  %27 = add nsw i32 %26, 1
  %28 = sext i32 %27 to i64
  %29 = mul i64 1, %28
  %30 = call noalias ptr @malloc(i64 noundef %29) #7
  store ptr %30, ptr %6, align 8, !tbaa !34
  %31 = load ptr, ptr %6, align 8, !tbaa !34
  %32 = icmp ne ptr %31, null
  br i1 %32, label %33, label %42

33:                                               ; preds = %25
  %34 = load ptr, ptr %6, align 8, !tbaa !34
  %35 = load ptr, ptr %3, align 8, !tbaa !34
  %36 = load i32, ptr %5, align 4, !tbaa !11
  %37 = sext i32 %36 to i64
  call void @llvm.memcpy.p0.p0.i64(ptr align 1 %34, ptr align 1 %35, i64 %37, i1 false)
  %38 = load ptr, ptr %6, align 8, !tbaa !34
  %39 = load i32, ptr %5, align 4, !tbaa !11
  %40 = sext i32 %39 to i64
  %41 = getelementptr inbounds i8, ptr %38, i64 %40
  store i8 0, ptr %41, align 1, !tbaa !36
  br label %42

42:                                               ; preds = %33, %25
  %43 = load ptr, ptr %6, align 8, !tbaa !34
  call void @llvm.lifetime.end.p0(i64 8, ptr %6) #6
  call void @llvm.lifetime.end.p0(i64 4, ptr %5) #6
  ret ptr %43
}

; Function Attrs: nounwind uwtable
define i32 @ipaddstroption_(ptr noundef %0, ptr noundef %1, ptr noundef %2, i32 noundef %3, i32 noundef %4) #0 {
  %6 = alloca ptr, align 8
  %7 = alloca ptr, align 8
  %8 = alloca ptr, align 8
  %9 = alloca i32, align 4
  %10 = alloca i32, align 4
  %11 = alloca ptr, align 8
  %12 = alloca ptr, align 8
  %13 = alloca ptr, align 8
  %14 = alloca i32, align 4
  store ptr %0, ptr %6, align 8, !tbaa !32
  store ptr %1, ptr %7, align 8, !tbaa !34
  store ptr %2, ptr %8, align 8, !tbaa !34
  store i32 %3, ptr %9, align 4, !tbaa !11
  store i32 %4, ptr %10, align 4, !tbaa !11
  call void @llvm.lifetime.start.p0(i64 8, ptr %11) #6
  call void @llvm.lifetime.start.p0(i64 8, ptr %12) #6
  call void @llvm.lifetime.start.p0(i64 8, ptr %13) #6
  %15 = load ptr, ptr %6, align 8, !tbaa !32
  %16 = load ptr, ptr %15, align 8, !tbaa !10
  store ptr %16, ptr %13, align 8, !tbaa !13
  call void @llvm.lifetime.start.p0(i64 4, ptr %14) #6
  %17 = load ptr, ptr %7, align 8, !tbaa !34
  %18 = load i32, ptr %9, align 4, !tbaa !11
  %19 = call ptr @f2cstr(ptr noundef %17, i32 noundef %18)
  store ptr %19, ptr %11, align 8, !tbaa !34
  %20 = load ptr, ptr %8, align 8, !tbaa !34
  %21 = load i32, ptr %10, align 4, !tbaa !11
  %22 = call ptr @f2cstr(ptr noundef %20, i32 noundef %21)
  store ptr %22, ptr %12, align 8, !tbaa !34
  %23 = load ptr, ptr %13, align 8, !tbaa !13
  %24 = getelementptr inbounds nuw %struct._FUserData, ptr %23, i32 0, i32 8
  %25 = load ptr, ptr %24, align 8, !tbaa !15
  %26 = load ptr, ptr %11, align 8, !tbaa !34
  %27 = load ptr, ptr %12, align 8, !tbaa !34
  %28 = call zeroext i1 @AddIpoptStrOption(ptr noundef %25, ptr noundef %26, ptr noundef %27)
  %29 = zext i1 %28 to i32
  store i32 %29, ptr %14, align 4, !tbaa !11
  %30 = load ptr, ptr %12, align 8, !tbaa !34
  call void @free(ptr noundef %30) #6
  %31 = load ptr, ptr %11, align 8, !tbaa !34
  call void @free(ptr noundef %31) #6
  %32 = load i32, ptr %14, align 4, !tbaa !11
  %33 = icmp ne i32 %32, 0
  %34 = select i1 %33, i32 0, i32 1
  call void @llvm.lifetime.end.p0(i64 4, ptr %14) #6
  call void @llvm.lifetime.end.p0(i64 8, ptr %13) #6
  call void @llvm.lifetime.end.p0(i64 8, ptr %12) #6
  call void @llvm.lifetime.end.p0(i64 8, ptr %11) #6
  ret i32 %34
}