; Function Attrs: nounwind uwtable
define range(i32 0, 2) i32 @ipaddstroption_(ptr noundef readonly captures(none) %0, ptr noundef readonly captures(none) %1, ptr noundef readonly captures(none) %2, i32 noundef %3, i32 noundef %4) local_unnamed_addr #0 {
  %6 = load ptr, ptr %0, align 8, !tbaa !23
  %invariant.gep.i = getelementptr i8, ptr %1, i64 -1
  %7 = icmp sgt i32 %3, 0
  br i1 %7, label %.lr.ph.i, label %._crit_edge.i

.lr.ph.i:                                         ; preds = %5, %10
  %.014.i = phi i32 [ %11, %10 ], [ %3, %5 ]
  %8 = zext nneg i32 %.014.i to i64
  %gep.i = getelementptr i8, ptr %invariant.gep.i, i64 %8
  %9 = load i8, ptr %gep.i, align 1, !tbaa !24
  %.not.i = icmp eq i8 %9, 32
  br i1 %.not.i, label %10, label %._crit_edge.i

10:                                               ; preds = %.lr.ph.i
  %11 = add nsw i32 %.014.i, -1
  %12 = icmp sgt i32 %.014.i, 1
  br i1 %12, label %.lr.ph.i, label %._crit_edge.i, !llvm.loop !25

._crit_edge.i:                                    ; preds = %10, %.lr.ph.i, %5
  %.0.lcssa.i = phi i32 [ %3, %5 ], [ 0, %10 ], [ %.014.i, %.lr.ph.i ]
  %13 = add nsw i32 %.0.lcssa.i, 1
  %14 = sext i32 %13 to i64
  %15 = tail call noalias ptr @malloc(i64 noundef %14) #7
  %.not13.i = icmp eq ptr %15, null
  br i1 %.not13.i, label %f2cstr.exit, label %16

16:                                               ; preds = %._crit_edge.i
  %17 = sext i32 %.0.lcssa.i to i64
  tail call void @llvm.memcpy.p0.p0.i64(ptr nonnull align 1 %15, ptr readonly align 1 %1, i64 %17, i1 false)
  %18 = getelementptr inbounds i8, ptr %15, i64 %17
  store i8 0, ptr %18, align 1, !tbaa !24
  br label %f2cstr.exit

f2cstr.exit:                                      ; preds = %._crit_edge.i, %16
  %invariant.gep.i10 = getelementptr i8, ptr %2, i64 -1
  %19 = icmp sgt i32 %4, 0
  br i1 %19, label %.lr.ph.i14, label %._crit_edge.i11

.lr.ph.i14:                                       ; preds = %f2cstr.exit, %22
  %.014.i15 = phi i32 [ %23, %22 ], [ %4, %f2cstr.exit ]
  %20 = zext nneg i32 %.014.i15 to i64
  %gep.i16 = getelementptr i8, ptr %invariant.gep.i10, i64 %20
  %21 = load i8, ptr %gep.i16, align 1, !tbaa !24
  %.not.i17 = icmp eq i8 %21, 32
  br i1 %.not.i17, label %22, label %._crit_edge.i11

22:                                               ; preds = %.lr.ph.i14
  %23 = add nsw i32 %.014.i15, -1
  %24 = icmp sgt i32 %.014.i15, 1
  br i1 %24, label %.lr.ph.i14, label %._crit_edge.i11, !llvm.loop !25

._crit_edge.i11:                                  ; preds = %22, %.lr.ph.i14, %f2cstr.exit
  %.0.lcssa.i12 = phi i32 [ %4, %f2cstr.exit ], [ 0, %22 ], [ %.014.i15, %.lr.ph.i14 ]
  %25 = add nsw i32 %.0.lcssa.i12, 1
  %26 = sext i32 %25 to i64
  %27 = tail call noalias ptr @malloc(i64 noundef %26) #7
  %.not13.i13 = icmp eq ptr %27, null
  br i1 %.not13.i13, label %f2cstr.exit18, label %28

28:                                               ; preds = %._crit_edge.i11
  %29 = sext i32 %.0.lcssa.i12 to i64
  tail call void @llvm.memcpy.p0.p0.i64(ptr nonnull align 1 %27, ptr readonly align 1 %2, i64 %29, i1 false)
  %30 = getelementptr inbounds i8, ptr %27, i64 %29
  store i8 0, ptr %30, align 1, !tbaa !24
  br label %f2cstr.exit18

f2cstr.exit18:                                    ; preds = %._crit_edge.i11, %28
  %31 = getelementptr inbounds nuw i8, ptr %6, i64 64
  %32 = load ptr, ptr %31, align 8, !tbaa !7
  %33 = tail call zeroext i1 @AddIpoptStrOption(ptr noundef %32, ptr noundef %15, ptr noundef %27) #8
  tail call void @free(ptr noundef %27) #8
  tail call void @free(ptr noundef %15) #8
  %not. = xor i1 %33, true
  %34 = zext i1 %not. to i32
  ret i32 %34
}